target datalayout = "e-m:e-p270:32:32-p271:32:32-p272:64:64-i64:64-i128:128-f80:128-n8:16:32:64-S128"
target triple = "x86_64-pc-linux-gnu"

%struct.listpids_info = type { i32, i32, i32, i32, ptr }

@.str.11 = private unnamed_addr constant [2 x i8] c"\0A\00", align 1
@.str.47 = private unnamed_addr constant [2 x i8] c"-\00", align 1
@.str.204 = private unnamed_addr constant [16 x i8] c"%-8d %-8d %-8s \00", align 1
@.str.205 = private unnamed_addr constant [6 x i8] c"%-7d \00", align 1
@.str.206 = private unnamed_addr constant [6 x i8] c"%-7s \00", align 1
@.str.207 = private unnamed_addr constant [6 x i8] c"%-8d \00", align 1
@.str.208 = private unnamed_addr constant [6 x i8] c"%-8s \00", align 1

; Function Attrs: nounwind uwtable
define internal i32 @_print_listpids_info(ptr noundef %0, ptr noundef %1) #0 {
  %3 = alloca ptr, align 8
  %4 = alloca ptr, align 8
  %5 = alloca ptr, align 8
  store ptr %0, ptr %3, align 8
  store ptr %1, ptr %4, align 8
  call void @llvm.lifetime.start.p0(i64 8, ptr %5) #9
  %6 = load ptr, ptr %3, align 8
  store ptr %6, ptr %5, align 8
  %7 = load ptr, ptr %5, align 8
  %8 = getelementptr inbounds nuw %struct.listpids_info, ptr %7, i32 0, i32 3
  %9 = load i32, ptr %8, align 4
  %10 = load ptr, ptr %5, align 8
  %11 = getelementptr inbounds nuw %struct.listpids_info, ptr %10, i32 0, i32 1
  %12 = load i32, ptr %11, align 4
  %13 = load ptr, ptr %5, align 8
  %14 = getelementptr inbounds nuw %struct.listpids_info, ptr %13, i32 0, i32 4
  %15 = load ptr, ptr %14, align 8
  %16 = call i32 (ptr, ...) @printf(ptr noundef @.str.204, i32 noundef %9, i32 noundef %12, ptr noundef %15)
  %17 = load ptr, ptr %5, align 8
  %18 = getelementptr inbounds nuw %struct.listpids_info, ptr %17, i32 0, i32 2
  %19 = load i32, ptr %18, align 8
  %20 = icmp ne i32 %19, -2
  br i1 %20, label %21, label %26

21:                                               ; preds = %2
  %22 = load ptr, ptr %5, align 8
  %23 = getelementptr inbounds nuw %struct.listpids_info, ptr %22, i32 0, i32 2
  %24 = load i32, ptr %23, align 8
  %25 = call i32 (ptr, ...) @printf(ptr noundef @.str.205, i32 noundef %24)
  br label %28

26:                                               ; preds = %2
  %27 = call i32 (ptr, ...) @printf(ptr noundef @.str.206, ptr noundef @.str.47)
  br label %28

28:                                               ; preds = %26, %21
  %29 = load ptr, ptr %5, align 8
  %30 = getelementptr inbounds nuw %struct.listpids_info, ptr %29, i32 0, i32 0
  %31 = load i32, ptr %30, align 8
  %32 = icmp ne i32 %31, -2
  br i1 %32, label %33, label %38

33:                                               ; preds = %28
  %34 = load ptr, ptr %5, align 8
  %35 = getelementptr inbounds nuw %struct.listpids_info, ptr %34, i32 0, i32 0
  %36 = load i32, ptr %35, align 8
  %37 = call i32 (ptr, ...) @printf(ptr noundef @.str.207, i32 noundef %36)
  br label %40

38:                                               ; preds = %28
  %39 = call i32 (ptr, ...) @printf(ptr noundef @.str.208, ptr noundef @.str.47)
  br label %40

40:                                               ; preds = %38, %33
  %41 = call i32 (ptr, ...) @printf(ptr noundef @.str.11)
  call void @llvm.lifetime.end.p0(i64 8, ptr %5) #9
  ret i32 0
}