; Function Attrs: nofree nounwind uwtable
define internal noundef i32 @_print_listpids_info(ptr noundef readonly captures(none) %0, ptr readnone captures(none) %1) #9 {
  %3 = getelementptr inbounds nuw i8, ptr %0, i64 12
  %4 = load i32, ptr %3, align 4
  %5 = getelementptr inbounds nuw i8, ptr %0, i64 4
  %6 = load i32, ptr %5, align 4
  %7 = getelementptr inbounds nuw i8, ptr %0, i64 16
  %8 = load ptr, ptr %7, align 8
  %9 = tail call i32 (ptr, ...) @printf(ptr noundef nonnull dereferenceable(1) @.str.204, i32 noundef %4, i32 noundef %6, ptr noundef %8)
  %10 = getelementptr inbounds nuw i8, ptr %0, i64 8
  %11 = load i32, ptr %10, align 8
  %.not = icmp eq i32 %11, -2
  br i1 %.not, label %14, label %12

12:                                               ; preds = %2
  %13 = tail call i32 (ptr, ...) @printf(ptr noundef nonnull dereferenceable(1) @.str.205, i32 noundef %11)
  br label %16

14:                                               ; preds = %2
  %15 = tail call i32 (ptr, ...) @printf(ptr noundef nonnull dereferenceable(1) @.str.206, ptr noundef nonnull @.str.47)
  br label %16

16:                                               ; preds = %14, %12
  %17 = load i32, ptr %0, align 8
  %.not9 = icmp eq i32 %17, -2
  br i1 %.not9, label %20, label %18

18:                                               ; preds = %16
  %19 = tail call i32 (ptr, ...) @printf(ptr noundef nonnull dereferenceable(1) @.str.207, i32 noundef %17)
  br label %22

20:                                               ; preds = %16
  %21 = tail call i32 (ptr, ...) @printf(ptr noundef nonnull dereferenceable(1) @.str.208, ptr noundef nonnull @.str.47)
  br label %22

22:                                               ; preds = %20, %18
  %putchar = tail call i32 @putchar(i32 10)
  ret i32 0
}